target datalayout = "e-m:e-p270:32:32-p271:32:32-p272:64:64-i64:64-i128:128-f80:128-n8:16:32:64-S128"
target triple = "x86_64-pc-linux-gnu"

%struct.load_segment = type { ptr, ptr, ptr, ptr }
%struct.Elf64_Phdr = type { i32, i32, i64, i64, i64, i64, i64, i64 }
%struct.dl_phdr_info = type { i64, ptr, ptr, i16, i64, i64, i64, ptr }

@GC_current_warn_proc = internal global ptr @GC_default_warn_proc, align 8
@GC_has_static_roots = internal global ptr null, align 8
@n_load_segs = internal global i32 0, align 4
@load_segs_overflow = internal global i32 0, align 4
@load_segs = internal global [2048 x %struct.load_segment] zeroinitializer, align 16
@.str.164 = private unnamed_addr constant [73 x i8] c"GC Warning: Too many PT_LOAD segments; registering as roots directly...\0A\00", align 1
@.str.165 = private unnamed_addr constant [58 x i8] c"GC Warning: More than one GNU_RELRO segment per load one\0A\00", align 1
@.str.166 = private unnamed_addr constant [71 x i8] c"GC Warning: Failed to find PT_GNU_RELRO segment inside PT_LOAD region\0A\00", align 1

; Function Attrs: nounwind uwtable
define internal i32 @GC_register_dynlib_callback(ptr noundef %0, i64 noundef %1, ptr noundef %2) #0 {
  %4 = alloca i32, align 4
  %5 = alloca ptr, align 8
  %6 = alloca i64, align 8
  %7 = alloca ptr, align 8
  %8 = alloca ptr, align 8
  %9 = alloca ptr, align 8
  %10 = alloca ptr, align 8
  %11 = alloca i32, align 4
  %12 = alloca ptr, align 8
  %13 = alloca i32, align 4
  store ptr %0, ptr %5, align 8
  store i64 %1, ptr %6, align 8
  store ptr %2, ptr %7, align 8
  %14 = load i64, ptr %6, align 8
  %15 = icmp ult i64 %14, 26
  br i1 %15, label %16, label %17

16:                                               ; preds = %3
  store i32 -1, ptr %4, align 4
  br label %215

17:                                               ; preds = %3
  %18 = load ptr, ptr %5, align 8
  %19 = getelementptr inbounds %struct.dl_phdr_info, ptr %18, i32 0, i32 2
  %20 = load ptr, ptr %19, align 8
  store ptr %20, ptr %8, align 8
  store i32 0, ptr %11, align 4
  br label %21

21:                                               ; preds = %107, %17
  %22 = load i32, ptr %11, align 4
  %23 = load ptr, ptr %5, align 8
  %24 = getelementptr inbounds %struct.dl_phdr_info, ptr %23, i32 0, i32 3
  %25 = load i16, ptr %24, align 8
  %26 = zext i16 %25 to i32
  %27 = icmp slt i32 %22, %26
  br i1 %27, label %28, label %112

28:                                               ; preds = %21
  %29 = load ptr, ptr %8, align 8
  %30 = getelementptr inbounds %struct.Elf64_Phdr, ptr %29, i32 0, i32 0
  %31 = load i32, ptr %30, align 8
  %32 = icmp eq i32 %31, 1
  br i1 %32, label %33, label %106

33:                                               ; preds = %28
  %34 = load ptr, ptr @GC_has_static_roots, align 8
  store ptr %34, ptr %12, align 8
  %35 = load ptr, ptr %8, align 8
  %36 = getelementptr inbounds %struct.Elf64_Phdr, ptr %35, i32 0, i32 1
  %37 = load i32, ptr %36, align 4
  %38 = and i32 %37, 2
  %39 = icmp eq i32 %38, 0
  br i1 %39, label %40, label %41

40:                                               ; preds = %33
  br label %107

41:                                               ; preds = %33
  %42 = load ptr, ptr %8, align 8
  %43 = getelementptr inbounds %struct.Elf64_Phdr, ptr %42, i32 0, i32 3
  %44 = load i64, ptr %43, align 8
  %45 = inttoptr i64 %44 to ptr
  %46 = load ptr, ptr %5, align 8
  %47 = getelementptr inbounds %struct.dl_phdr_info, ptr %46, i32 0, i32 0
  %48 = load i64, ptr %47, align 8
  %49 = getelementptr inbounds i8, ptr %45, i64 %48
  store ptr %49, ptr %9, align 8
  %50 = load ptr, ptr %9, align 8
  %51 = load ptr, ptr %8, align 8
  %52 = getelementptr inbounds %struct.Elf64_Phdr, ptr %51, i32 0, i32 6
  %53 = load i64, ptr %52, align 8
  %54 = getelementptr inbounds i8, ptr %50, i64 %53
  store ptr %54, ptr %10, align 8
  %55 = load ptr, ptr %12, align 8
  %56 = icmp ne ptr %55, null
  br i1 %56, label %57, label %69

57:                                               ; preds = %41
  %58 = load ptr, ptr %12, align 8
  %59 = load ptr, ptr %5, align 8
  %60 = getelementptr inbounds %struct.dl_phdr_info, ptr %59, i32 0, i32 1
  %61 = load ptr, ptr %60, align 8
  %62 = load ptr, ptr %9, align 8
  %63 = load ptr, ptr %8, align 8
  %64 = getelementptr inbounds %struct.Elf64_Phdr, ptr %63, i32 0, i32 6
  %65 = load i64, ptr %64, align 8
  %66 = call i32 %58(ptr noundef %61, ptr noundef %62, i64 noundef %65)
  %67 = icmp ne i32 %66, 0
  br i1 %67, label %69, label %68

68:                                               ; preds = %57
  br label %107

69:                                               ; preds = %57, %41
  %70 = load ptr, ptr %9, align 8
  %71 = ptrtoint ptr %70 to i64
  %72 = and i64 %71, -8
  %73 = inttoptr i64 %72 to ptr
  store ptr %73, ptr %9, align 8
  %74 = load i32, ptr @n_load_segs, align 4
  %75 = icmp sge i32 %74, 2048
  br i1 %75, label %76, label %84

76:                                               ; preds = %69
  %77 = load i32, ptr @load_segs_overflow, align 4
  %78 = icmp ne i32 %77, 0
  br i1 %78, label %81, label %79

79:                                               ; preds = %76
  %80 = load ptr, ptr @GC_current_warn_proc, align 8
  call void %80(ptr noundef @.str.164, i64 noundef 0)
  store i32 1, ptr @load_segs_overflow, align 4
  br label %81

81:                                               ; preds = %79, %76
  %82 = load ptr, ptr %9, align 8
  %83 = load ptr, ptr %10, align 8
  call void @GC_add_roots_inner(ptr noundef %82, ptr noundef %83, i32 noundef 1)
  br label %105

84:                                               ; preds = %69
  %85 = load ptr, ptr %9, align 8
  %86 = load i32, ptr @n_load_segs, align 4
  %87 = sext i32 %86 to i64
  %88 = getelementptr inbounds [2048 x %struct.load_segment], ptr @load_segs, i64 0, i64 %87
  %89 = getelementptr inbounds %struct.load_segment, ptr %88, i32 0, i32 0
  store ptr %85, ptr %89, align 16
  %90 = load ptr, ptr %10, align 8
  %91 = load i32, ptr @n_load_segs, align 4
  %92 = sext i32 %91 to i64
  %93 = getelementptr inbounds [2048 x %struct.load_segment], ptr @load_segs, i64 0, i64 %92
  %94 = getelementptr inbounds %struct.load_segment, ptr %93, i32 0, i32 1
  store ptr %90, ptr %94, align 8
  %95 = load i32, ptr @n_load_segs, align 4
  %96 = sext i32 %95 to i64
  %97 = getelementptr inbounds [2048 x %struct.load_segment], ptr @load_segs, i64 0, i64 %96
  %98 = getelementptr inbounds %struct.load_segment, ptr %97, i32 0, i32 2
  store ptr null, ptr %98, align 16
  %99 = load i32, ptr @n_load_segs, align 4
  %100 = sext i32 %99 to i64
  %101 = getelementptr inbounds [2048 x %struct.load_segment], ptr @load_segs, i64 0, i64 %100
  %102 = getelementptr inbounds %struct.load_segment, ptr %101, i32 0, i32 3
  store ptr null, ptr %102, align 8
  %103 = load i32, ptr @n_load_segs, align 4
  %104 = add nsw i32 %103, 1
  store i32 %104, ptr @n_load_segs, align 4
  br label %105

105:                                              ; preds = %84, %81
  br label %106

106:                                              ; preds = %105, %28
  br label %107

107:                                              ; preds = %106, %68, %40
  %108 = load i32, ptr %11, align 4
  %109 = add nsw i32 %108, 1
  store i32 %109, ptr %11, align 4
  %110 = load ptr, ptr %8, align 8
  %111 = getelementptr inbounds %struct.Elf64_Phdr, ptr %110, i32 1
  store ptr %111, ptr %8, align 8
  br label %21, !llvm.loop !163

112:                                              ; preds = %21
  %113 = load ptr, ptr %5, align 8
  %114 = getelementptr inbounds %struct.dl_phdr_info, ptr %113, i32 0, i32 2
  %115 = load ptr, ptr %114, align 8
  store ptr %115, ptr %8, align 8
  store i32 0, ptr %11, align 4
  br label %116

116:                                              ; preds = %208, %112
  %117 = load i32, ptr %11, align 4
  %118 = load ptr, ptr %5, align 8
  %119 = getelementptr inbounds %struct.dl_phdr_info, ptr %118, i32 0, i32 3
  %120 = load i16, ptr %119, align 8
  %121 = zext i16 %120 to i32
  %122 = icmp slt i32 %117, %121
  br i1 %122, label %123, label %213

123:                                              ; preds = %116
  %124 = load ptr, ptr %8, align 8
  %125 = getelementptr inbounds %struct.Elf64_Phdr, ptr %124, i32 0, i32 0
  %126 = load i32, ptr %125, align 8
  %127 = icmp eq i32 %126, 1685382482
  br i1 %127, label %128, label %207

128:                                              ; preds = %123
  %129 = load ptr, ptr %8, align 8
  %130 = getelementptr inbounds %struct.Elf64_Phdr, ptr %129, i32 0, i32 3
  %131 = load i64, ptr %130, align 8
  %132 = inttoptr i64 %131 to ptr
  %133 = load ptr, ptr %5, align 8
  %134 = getelementptr inbounds %struct.dl_phdr_info, ptr %133, i32 0, i32 0
  %135 = load i64, ptr %134, align 8
  %136 = getelementptr inbounds i8, ptr %132, i64 %135
  store ptr %136, ptr %9, align 8
  %137 = load ptr, ptr %9, align 8
  %138 = load ptr, ptr %8, align 8
  %139 = getelementptr inbounds %struct.Elf64_Phdr, ptr %138, i32 0, i32 6
  %140 = load i64, ptr %139, align 8
  %141 = getelementptr inbounds i8, ptr %137, i64 %140
  store ptr %141, ptr %10, align 8
  %142 = load i32, ptr @n_load_segs, align 4
  store i32 %142, ptr %13, align 4
  br label %143

143:                                              ; preds = %205, %128
  %144 = load i32, ptr %13, align 4
  %145 = add nsw i32 %144, -1
  store i32 %145, ptr %13, align 4
  %146 = icmp sge i32 %145, 0
  br i1 %146, label %147, label %206

147:                                              ; preds = %143
  %148 = load ptr, ptr %9, align 8
  %149 = ptrtoint ptr %148 to i64
  %150 = load i32, ptr %13, align 4
  %151 = sext i32 %150 to i64
  %152 = getelementptr inbounds [2048 x %struct.load_segment], ptr @load_segs, i64 0, i64 %151
  %153 = getelementptr inbounds %struct.load_segment, ptr %152, i32 0, i32 0
  %154 = load ptr, ptr %153, align 16
  %155 = ptrtoint ptr %154 to i64
  %156 = icmp uge i64 %149, %155
  br i1 %156, label %157, label %197

157:                                              ; preds = %147
  %158 = load ptr, ptr %9, align 8
  %159 = ptrtoint ptr %158 to i64
  %160 = load i32, ptr %13, align 4
  %161 = sext i32 %160 to i64
  %162 = getelementptr inbounds [2048 x %struct.load_segment], ptr @load_segs, i64 0, i64 %161
  %163 = getelementptr inbounds %struct.load_segment, ptr %162, i32 0, i32 1
  %164 = load ptr, ptr %163, align 8
  %165 = ptrtoint ptr %164 to i64
  %166 = icmp ult i64 %159, %165
  br i1 %166, label %167, label %197

167:                                              ; preds = %157
  %168 = load i32, ptr %13, align 4
  %169 = sext i32 %168 to i64
  %170 = getelementptr inbounds [2048 x %struct.load_segment], ptr @load_segs, i64 0, i64 %169
  %171 = getelementptr inbounds %struct.load_segment, ptr %170, i32 0, i32 2
  %172 = load ptr, ptr %171, align 16
  %173 = icmp ne ptr %172, null
  br i1 %173, label %174, label %176

174:                                              ; preds = %167
  %175 = load ptr, ptr @GC_current_warn_proc, align 8
  call void %175(ptr noundef @.str.165, i64 noundef 0)
  br label %196

176:                                              ; preds = %167
  %177 = load i32, ptr %13, align 4
  %178 = sext i32 %177 to i64
  %179 = getelementptr inbounds [2048 x %struct.load_segment], ptr @load_segs, i64 0, i64 %178
  %180 = getelementptr inbounds %struct.load_segment, ptr %179, i32 0, i32 1
  %181 = load ptr, ptr %180, align 8
  %182 = load i32, ptr %13, align 4
  %183 = sext i32 %182 to i64
  %184 = getelementptr inbounds [2048 x %struct.load_segment], ptr @load_segs, i64 0, i64 %183
  %185 = getelementptr inbounds %struct.load_segment, ptr %184, i32 0, i32 3
  store ptr %181, ptr %185, align 8
  %186 = load ptr, ptr %9, align 8
  %187 = load i32, ptr %13, align 4
  %188 = sext i32 %187 to i64
  %189 = getelementptr inbounds [2048 x %struct.load_segment], ptr @load_segs, i64 0, i64 %188
  %190 = getelementptr inbounds %struct.load_segment, ptr %189, i32 0, i32 1
  store ptr %186, ptr %190, align 8
  %191 = load ptr, ptr %10, align 8
  %192 = load i32, ptr %13, align 4
  %193 = sext i32 %192 to i64
  %194 = getelementptr inbounds [2048 x %struct.load_segment], ptr @load_segs, i64 0, i64 %193
  %195 = getelementptr inbounds %struct.load_segment, ptr %194, i32 0, i32 2
  store ptr %191, ptr %195, align 16
  br label %196

196:                                              ; preds = %176, %174
  br label %206

197:                                              ; preds = %157, %147
  %198 = load i32, ptr %13, align 4
  %199 = icmp eq i32 0, %198
  br i1 %199, label %200, label %205

200:                                              ; preds = %197
  %201 = load ptr, ptr @GC_has_static_roots, align 8
  %202 = icmp eq ptr null, %201
  br i1 %202, label %203, label %205

203:                                              ; preds = %200
  %204 = load ptr, ptr @GC_current_warn_proc, align 8
  call void %204(ptr noundef @.str.166, i64 noundef 0)
  br label %205

205:                                              ; preds = %203, %200, %197
  br label %143, !llvm.loop !164

206:                                              ; preds = %196, %143
  br label %207

207:                                              ; preds = %206, %123
  br label %208

208:                                              ; preds = %207
  %209 = load i32, ptr %11, align 4
  %210 = add nsw i32 %209, 1
  store i32 %210, ptr %11, align 4
  %211 = load ptr, ptr %8, align 8
  %212 = getelementptr inbounds %struct.Elf64_Phdr, ptr %211, i32 1
  store ptr %212, ptr %8, align 8
  br label %116, !llvm.loop !165

213:                                              ; preds = %116
  %214 = load ptr, ptr %7, align 8
  store i32 1, ptr %214, align 4
  store i32 0, ptr %4, align 4
  br label %215

215:                                              ; preds = %213, %16
  %216 = load i32, ptr %4, align 4
  ret i32 %216
}