; Function Attrs: nounwind uwtable
define internal range(i32 -1, 1) i32 @GC_register_dynlib_callback(ptr noundef readonly captures(none) %0, i64 noundef %1, ptr noundef writeonly captures(none) %2) #1 {
  %4 = icmp ult i64 %1, 26
  br i1 %4, label %94, label %5

5:                                                ; preds = %3
  %6 = getelementptr inbounds nuw i8, ptr %0, i64 16
  %7 = getelementptr inbounds nuw i8, ptr %0, i64 24
  %8 = load i16, ptr %7, align 8
  %.not71 = icmp eq i16 %8, 0
  br i1 %.not71, label %._crit_edge70, label %.lr.ph

.lr.ph:                                           ; preds = %5
  %.pre76 = load ptr, ptr %6, align 8
  %9 = getelementptr inbounds nuw i8, ptr %0, i64 8
  br label %10

10:                                               ; preds = %.lr.ph, %47
  %.04862 = phi i32 [ 0, %.lr.ph ], [ %48, %47 ]
  %.04961 = phi ptr [ %.pre76, %.lr.ph ], [ %49, %47 ]
  %11 = load i32, ptr %.04961, align 8
  %12 = icmp eq i32 %11, 1
  br i1 %12, label %13, label %47

13:                                               ; preds = %10
  %14 = load ptr, ptr @GC_has_static_roots, align 8
  %15 = getelementptr inbounds nuw i8, ptr %.04961, i64 4
  %16 = load i32, ptr %15, align 4
  %17 = and i32 %16, 2
  %18 = icmp eq i32 %17, 0
  br i1 %18, label %47, label %19

19:                                               ; preds = %13
  %20 = getelementptr inbounds nuw i8, ptr %.04961, i64 16
  %21 = load i64, ptr %20, align 8
  %22 = inttoptr i64 %21 to ptr
  %23 = load i64, ptr %0, align 8
  %24 = getelementptr inbounds i8, ptr %22, i64 %23
  %25 = getelementptr inbounds nuw i8, ptr %.04961, i64 40
  %26 = load i64, ptr %25, align 8
  %27 = getelementptr inbounds i8, ptr %24, i64 %26
  %.not56 = icmp eq ptr %14, null
  br i1 %.not56, label %31, label %28

28:                                               ; preds = %19
  %29 = load ptr, ptr %9, align 8
  %30 = tail call i32 %14(ptr noundef %29, ptr noundef %24, i64 noundef %26) #41
  %.not57 = icmp eq i32 %30, 0
  br i1 %.not57, label %47, label %31

31:                                               ; preds = %28, %19
  %32 = ptrtoint ptr %24 to i64
  %33 = and i64 %32, -8
  %34 = inttoptr i64 %33 to ptr
  %35 = load i32, ptr @n_load_segs, align 4
  %36 = icmp sgt i32 %35, 2047
  br i1 %36, label %37, label %41

37:                                               ; preds = %31
  %.b = load i1, ptr @load_segs_overflow, align 4
  br i1 %.b, label %40, label %38

38:                                               ; preds = %37
  %39 = load ptr, ptr @GC_current_warn_proc, align 8
  tail call void %39(ptr noundef nonnull @.str.164, i64 noundef 0) #41
  store i1 true, ptr @load_segs_overflow, align 4
  br label %40

40:                                               ; preds = %38, %37
  tail call fastcc void @GC_add_roots_inner(ptr noundef %34, ptr noundef %27, i32 noundef 1)
  br label %47

41:                                               ; preds = %31
  %42 = sext i32 %35 to i64
  %43 = getelementptr inbounds [2048 x %struct.load_segment], ptr @load_segs, i64 0, i64 %42
  store ptr %34, ptr %43, align 16
  %44 = getelementptr inbounds [2048 x %struct.load_segment], ptr @load_segs, i64 0, i64 %42, i32 1
  store ptr %27, ptr %44, align 8
  %45 = getelementptr inbounds [2048 x %struct.load_segment], ptr @load_segs, i64 0, i64 %42, i32 2
  %46 = add nsw i32 %35, 1
  tail call void @llvm.memset.p0.i64(ptr noundef nonnull align 16 dereferenceable(16) %45, i8 0, i64 16, i1 false)
  store i32 %46, ptr @n_load_segs, align 4
  br label %47

47:                                               ; preds = %10, %41, %40, %28, %13
  %48 = add nuw nsw i32 %.04862, 1
  %49 = getelementptr inbounds nuw i8, ptr %.04961, i64 56
  %50 = load i16, ptr %7, align 8
  %51 = zext i16 %50 to i32
  %52 = icmp samesign ult i32 %48, %51
  br i1 %52, label %10, label %._crit_edge, !llvm.loop !209

._crit_edge:                                      ; preds = %47
  %53 = icmp eq i16 %50, 0
  br i1 %53, label %._crit_edge70, label %.lr.ph69.preheader

.lr.ph69.preheader:                               ; preds = %._crit_edge
  %.pre = load ptr, ptr %6, align 8
  br label %.lr.ph69

.lr.ph69:                                         ; preds = %.lr.ph69.preheader, %.loopexit
  %.167 = phi i32 [ %89, %.loopexit ], [ 0, %.lr.ph69.preheader ]
  %.15066 = phi ptr [ %90, %.loopexit ], [ %.pre, %.lr.ph69.preheader ]
  %54 = load i32, ptr %.15066, align 8
  %55 = icmp eq i32 %54, 1685382482
  br i1 %55, label %56, label %.loopexit

56:                                               ; preds = %.lr.ph69
  %57 = getelementptr inbounds nuw i8, ptr %.15066, i64 16
  %58 = load i64, ptr %57, align 8
  %59 = inttoptr i64 %58 to ptr
  %60 = load i64, ptr %0, align 8
  %61 = getelementptr inbounds i8, ptr %59, i64 %60
  %62 = getelementptr inbounds nuw i8, ptr %.15066, i64 40
  %63 = load i64, ptr %62, align 8
  %64 = getelementptr inbounds i8, ptr %61, i64 %63
  %65 = load i32, ptr @n_load_segs, align 4
  %66 = icmp sgt i32 %65, 0
  br i1 %66, label %.lr.ph65.preheader, label %.loopexit

.lr.ph65.preheader:                               ; preds = %56
  %67 = zext nneg i32 %65 to i64
  %68 = load ptr, ptr @GC_has_static_roots, align 8
  %69 = icmp eq ptr %68, null
  br label %.lr.ph65

.lr.ph65:                                         ; preds = %.lr.ph65.preheader, %87
  %indvars.iv = phi i64 [ %67, %.lr.ph65.preheader ], [ %indvars.iv.next, %87 ]
  %indvars.iv.next = add nsw i64 %indvars.iv, -1
  %70 = getelementptr inbounds nuw [2048 x %struct.load_segment], ptr @load_segs, i64 0, i64 %indvars.iv.next
  %71 = load ptr, ptr %70, align 16
  %.not = icmp ult ptr %61, %71
  br i1 %.not, label %84, label %72

72:                                               ; preds = %.lr.ph65
  %73 = getelementptr inbounds nuw i8, ptr %70, i64 8
  %74 = load ptr, ptr %73, align 8
  %75 = icmp ult ptr %61, %74
  br i1 %75, label %76, label %84

76:                                               ; preds = %72
  %77 = getelementptr inbounds nuw i8, ptr %70, i64 16
  %78 = load ptr, ptr %77, align 16
  %.not55 = icmp eq ptr %78, null
  br i1 %.not55, label %81, label %79

79:                                               ; preds = %76
  %80 = load ptr, ptr @GC_current_warn_proc, align 8
  tail call void %80(ptr noundef nonnull @.str.165, i64 noundef 0) #41
  br label %.loopexit

81:                                               ; preds = %76
  %82 = getelementptr inbounds nuw i8, ptr %70, i64 8
  %83 = getelementptr inbounds nuw i8, ptr %70, i64 24
  store ptr %74, ptr %83, align 8
  store ptr %61, ptr %82, align 8
  store ptr %64, ptr %77, align 16
  br label %.loopexit

84:                                               ; preds = %72, %.lr.ph65
  %85 = icmp eq i64 %indvars.iv.next, 0
  %or.cond = select i1 %85, i1 %69, i1 false
  br i1 %or.cond, label %.thread, label %87

.thread:                                          ; preds = %84
  %86 = load ptr, ptr @GC_current_warn_proc, align 8
  tail call void %86(ptr noundef nonnull @.str.166, i64 noundef 0) #41
  br label %.loopexit

87:                                               ; preds = %84
  %88 = icmp samesign ugt i64 %indvars.iv, 1
  br i1 %88, label %.lr.ph65, label %.loopexit, !llvm.loop !210

.loopexit:                                        ; preds = %87, %.thread, %56, %.lr.ph69, %79, %81
  %89 = add nuw nsw i32 %.167, 1
  %90 = getelementptr inbounds nuw i8, ptr %.15066, i64 56
  %91 = load i16, ptr %7, align 8
  %92 = zext i16 %91 to i32
  %93 = icmp samesign ult i32 %89, %92
  br i1 %93, label %.lr.ph69, label %._crit_edge70, !llvm.loop !211

._crit_edge70:                                    ; preds = %.loopexit, %5, %._crit_edge
  store i32 1, ptr %2, align 4
  br label %94

94:                                               ; preds = %3, %._crit_edge70
  %.047 = phi i32 [ 0, %._crit_edge70 ], [ -1, %3 ]
  ret i32 %.047
}